target datalayout = "e-m:e-p270:32:32-p271:32:32-p272:64:64-i64:64-i128:128-f80:128-n8:16:32:64-S128"
target triple = "x86_64-pc-linux-gnu"

%struct._address = type { i32, i32, ptr, ptr }
%struct.hashipv4 = type { i32, i8, [16 x i8], [256 x i8], [19 x i8] }

; Function Attrs: alwaysinline nounwind
define internal ptr @memcpy.inline(ptr noalias %0, ptr noalias %1, i64 %2) #8 {
  %4 = alloca ptr, align 8
  %5 = alloca ptr, align 8
  %6 = alloca i64, align 8
  store ptr %0, ptr %4, align 8
  store ptr %1, ptr %5, align 8
  store i64 %2, ptr %6, align 8
  %7 = load ptr, ptr %4, align 8
  %8 = load ptr, ptr %5, align 8
  %9 = load i64, ptr %6, align 8
  %10 = load ptr, ptr %4, align 8
  %11 = call i64 @llvm.objectsize.i64.p0(ptr %10, i1 false, i1 true, i1 true)
  %12 = call ptr @__memcpy_chk(ptr noundef %7, ptr noundef %8, i64 noundef %9, i64 noundef %11) #16
  ret ptr %12
}

; Function Attrs: null_pointer_is_valid sspstrong uwtable
define void @add_conversation_table_data_ipv4_subnet(ptr noundef %0, ptr noundef %1, ptr noundef %2, i32 noundef %3, i32 noundef %4, i32 noundef %5, i32 noundef %6, i32 noundef %7, ptr noundef %8, ptr noundef %9, ptr noundef %10, i32 noundef %11) #1 {
  %13 = alloca ptr, align 8
  %14 = alloca ptr, align 8
  %15 = alloca ptr, align 8
  %16 = alloca i32, align 4
  %17 = alloca i32, align 4
  %18 = alloca i32, align 4
  %19 = alloca i32, align 4
  %20 = alloca i32, align 4
  %21 = alloca ptr, align 8
  %22 = alloca ptr, align 8
  %23 = alloca ptr, align 8
  %24 = alloca i32, align 4
  %25 = alloca i32, align 4
  %26 = alloca i32, align 4
  %27 = alloca i8, align 1
  %28 = alloca i8, align 1
  %29 = alloca ptr, align 8
  %30 = alloca ptr, align 8
  %31 = alloca ptr, align 8
  %32 = alloca ptr, align 8
  store ptr %0, ptr %13, align 8
  store ptr %1, ptr %14, align 8
  store ptr %2, ptr %15, align 8
  store i32 %3, ptr %16, align 4
  store i32 %4, ptr %17, align 4
  store i32 %5, ptr %18, align 4
  store i32 %6, ptr %19, align 4
  store i32 %7, ptr %20, align 4
  store ptr %8, ptr %21, align 8
  store ptr %9, ptr %22, align 8
  store ptr %10, ptr %23, align 8
  store i32 %11, ptr %24, align 4
  call void @llvm.lifetime.start.p0(i64 4, ptr %25) #16
  %33 = load ptr, ptr %14, align 8
  %34 = getelementptr inbounds nuw %struct._address, ptr %33, i32 0, i32 2
  %35 = load ptr, ptr %34, align 8
  %36 = call ptr @memcpy.inline(ptr noundef %25, ptr noundef %35, i64 noundef 4) #16
  call void @llvm.lifetime.start.p0(i64 4, ptr %26) #16
  %37 = load ptr, ptr %15, align 8
  %38 = getelementptr inbounds nuw %struct._address, ptr %37, i32 0, i32 2
  %39 = load ptr, ptr %38, align 8
  %40 = call ptr @memcpy.inline(ptr noundef %26, ptr noundef %39, i64 noundef 4) #16
  call void @llvm.lifetime.start.p0(i64 1, ptr %27) #16
  store i8 0, ptr %27, align 1
  call void @llvm.lifetime.start.p0(i64 1, ptr %28) #16
  store i8 0, ptr %28, align 1
  call void @llvm.lifetime.start.p0(i64 8, ptr %29) #16
  %41 = load i32, ptr %25, align 4
  %42 = call ptr @new_ipv4(i32 noundef %41)
  store volatile ptr %42, ptr %29, align 8
  %43 = load i32, ptr %25, align 4
  %44 = load volatile ptr, ptr %29, align 8
  %45 = call zeroext i1 @fill_dummy_ip4(i32 noundef %43, ptr noundef %44)
  %46 = zext i1 %45 to i8
  store i8 %46, ptr %27, align 1
  call void @llvm.lifetime.start.p0(i64 8, ptr %30) #16
  %47 = load i32, ptr %26, align 4
  %48 = call ptr @new_ipv4(i32 noundef %47)
  store volatile ptr %48, ptr %30, align 8
  %49 = load i32, ptr %26, align 4
  %50 = load volatile ptr, ptr %30, align 8
  %51 = call zeroext i1 @fill_dummy_ip4(i32 noundef %49, ptr noundef %50)
  %52 = zext i1 %51 to i8
  store i8 %52, ptr %28, align 1
  call void @llvm.lifetime.start.p0(i64 8, ptr %31) #16
  store ptr null, ptr %31, align 8
  %53 = call ptr @wmem_epan_scope()
  %54 = call noalias ptr @wmem_alloc(ptr noundef %53, i64 noundef 24) #18
  store ptr %54, ptr %31, align 8
  %55 = load volatile ptr, ptr %29, align 8
  %56 = getelementptr inbounds nuw %struct.hashipv4, ptr %55, i32 0, i32 4
  %57 = getelementptr inbounds [19 x i8], ptr %56, i64 0, i64 0
  %58 = call i64 @strlen(ptr noundef %57) #17
  %59 = trunc i64 %58 to i32
  %60 = load ptr, ptr %31, align 8
  %61 = getelementptr inbounds nuw %struct._address, ptr %60, i32 0, i32 1
  store i32 %59, ptr %61, align 4
  %62 = call ptr @wmem_file_scope()
  %63 = load volatile ptr, ptr %29, align 8
  %64 = getelementptr inbounds nuw %struct.hashipv4, ptr %63, i32 0, i32 4
  %65 = getelementptr inbounds [19 x i8], ptr %64, i64 0, i64 0
  %66 = call noalias ptr @wmem_strdup(ptr noundef %62, ptr noundef %65)
  %67 = load ptr, ptr %31, align 8
  %68 = getelementptr inbounds nuw %struct._address, ptr %67, i32 0, i32 2
  store ptr %66, ptr %68, align 8
  %69 = load ptr, ptr %31, align 8
  %70 = getelementptr inbounds nuw %struct._address, ptr %69, i32 0, i32 0
  store i32 7, ptr %70, align 8
  call void @llvm.lifetime.start.p0(i64 8, ptr %32) #16
  store ptr null, ptr %32, align 8
  %71 = call ptr @wmem_epan_scope()
  %72 = call noalias ptr @wmem_alloc(ptr noundef %71, i64 noundef 24) #18
  store ptr %72, ptr %32, align 8
  %73 = load volatile ptr, ptr %30, align 8
  %74 = getelementptr inbounds nuw %struct.hashipv4, ptr %73, i32 0, i32 4
  %75 = getelementptr inbounds [19 x i8], ptr %74, i64 0, i64 0
  %76 = call i64 @strlen(ptr noundef %75) #17
  %77 = trunc i64 %76 to i32
  %78 = load ptr, ptr %32, align 8
  %79 = getelementptr inbounds nuw %struct._address, ptr %78, i32 0, i32 1
  store i32 %77, ptr %79, align 4
  %80 = call ptr @wmem_file_scope()
  %81 = load volatile ptr, ptr %30, align 8
  %82 = getelementptr inbounds nuw %struct.hashipv4, ptr %81, i32 0, i32 4
  %83 = getelementptr inbounds [19 x i8], ptr %82, i64 0, i64 0
  %84 = call noalias ptr @wmem_strdup(ptr noundef %80, ptr noundef %83)
  %85 = load ptr, ptr %32, align 8
  %86 = getelementptr inbounds nuw %struct._address, ptr %85, i32 0, i32 2
  store ptr %84, ptr %86, align 8
  %87 = load ptr, ptr %32, align 8
  %88 = getelementptr inbounds nuw %struct._address, ptr %87, i32 0, i32 0
  store i32 7, ptr %88, align 8
  %89 = load ptr, ptr %13, align 8
  %90 = load ptr, ptr %14, align 8
  %91 = load ptr, ptr %15, align 8
  %92 = load i32, ptr %16, align 4
  %93 = load i32, ptr %17, align 4
  %94 = load i32, ptr %18, align 4
  %95 = load i32, ptr %19, align 4
  %96 = load i32, ptr %20, align 4
  %97 = load ptr, ptr %21, align 8
  %98 = load ptr, ptr %22, align 8
  %99 = load ptr, ptr %23, align 8
  %100 = load i32, ptr %24, align 4
  %101 = call ptr @add_conversation_table_data_with_conv_id(ptr noundef %89, ptr noundef %90, ptr noundef %91, i32 noundef %92, i32 noundef %93, i32 noundef %94, i32 noundef %95, i32 noundef %96, ptr noundef %97, ptr noundef %98, ptr noundef %99, i32 noundef %100)
  %102 = load i8, ptr %27, align 1, !range !6, !noundef !7
  %103 = trunc i8 %102 to i1
  br i1 %103, label %107, label %104

104:                                              ; preds = %12
  %105 = load i8, ptr %28, align 1, !range !6, !noundef !7
  %106 = trunc i8 %105 to i1
  br i1 %106, label %107, label %144

107:                                              ; preds = %104, %12
  %108 = load ptr, ptr %13, align 8
  %109 = load i8, ptr %27, align 1, !range !6, !noundef !7
  %110 = trunc i8 %109 to i1
  br i1 %110, label %111, label %113

111:                                              ; preds = %107
  %112 = load ptr, ptr %31, align 8
  br label %115

113:                                              ; preds = %107
  %114 = load ptr, ptr %14, align 8
  br label %115

115:                                              ; preds = %113, %111
  %116 = phi ptr [ %112, %111 ], [ %114, %113 ]
  %117 = load i8, ptr %28, align 1, !range !6, !noundef !7
  %118 = trunc i8 %117 to i1
  br i1 %118, label %119, label %121

119:                                              ; preds = %115
  %120 = load ptr, ptr %32, align 8
  br label %123

121:                                              ; preds = %115
  %122 = load ptr, ptr %15, align 8
  br label %123

123:                                              ; preds = %121, %119
  %124 = phi ptr [ %120, %119 ], [ %122, %121 ]
  %125 = load i32, ptr %16, align 4
  %126 = load i32, ptr %17, align 4
  %127 = load i8, ptr %27, align 1, !range !6, !noundef !7
  %128 = trunc i8 %127 to i1
  br i1 %128, label %132, label %129

129:                                              ; preds = %123
  %130 = load i8, ptr %28, align 1, !range !6, !noundef !7
  %131 = trunc i8 %130 to i1
  br i1 %131, label %132, label %133

132:                                              ; preds = %129, %123
  br label %135

133:                                              ; preds = %129
  %134 = load i32, ptr %18, align 4
  br label %135

135:                                              ; preds = %133, %132
  %136 = phi i32 [ -1, %132 ], [ %134, %133 ]
  %137 = load i32, ptr %19, align 4
  %138 = load i32, ptr %20, align 4
  %139 = load ptr, ptr %21, align 8
  %140 = load ptr, ptr %22, align 8
  %141 = load ptr, ptr %23, align 8
  %142 = load i32, ptr %24, align 4
  %143 = call ptr @add_conversation_table_data_with_conv_id(ptr noundef %108, ptr noundef %116, ptr noundef %124, i32 noundef %125, i32 noundef %126, i32 noundef %136, i32 noundef %137, i32 noundef %138, ptr noundef %139, ptr noundef %140, ptr noundef %141, i32 noundef %142)
  br label %144

144:                                              ; preds = %135, %104
  call void @llvm.lifetime.end.p0(i64 8, ptr %32) #16
  call void @llvm.lifetime.end.p0(i64 8, ptr %31) #16
  call void @llvm.lifetime.end.p0(i64 8, ptr %30) #16
  call void @llvm.lifetime.end.p0(i64 8, ptr %29) #16
  call void @llvm.lifetime.end.p0(i64 1, ptr %28) #16
  call void @llvm.lifetime.end.p0(i64 1, ptr %27) #16
  call void @llvm.lifetime.end.p0(i64 4, ptr %26) #16
  call void @llvm.lifetime.end.p0(i64 4, ptr %25) #16
  ret void
}