; Function Attrs: null_pointer_is_valid sspstrong uwtable
define void @add_conversation_table_data_ipv4_subnet(ptr noundef captures(none) %0, ptr noundef readonly captures(none) %1, ptr noundef readonly captures(none) %2, i32 noundef %3, i32 noundef %4, i32 noundef %5, i32 noundef %6, i32 noundef %7, ptr noundef %8, ptr noundef readonly captures(none) %9, ptr noundef %10, i32 noundef %11) local_unnamed_addr #1 {
  %13 = alloca ptr, align 8
  %14 = alloca ptr, align 8
  %15 = getelementptr inbounds nuw i8, ptr %1, i64 8
  %16 = load ptr, ptr %15, align 8
  %17 = load i32, ptr %16, align 1
  %18 = getelementptr inbounds nuw i8, ptr %2, i64 8
  %19 = load ptr, ptr %18, align 8
  %20 = load i32, ptr %19, align 1
  call void @llvm.lifetime.start.p0(i64 8, ptr nonnull %13)
  %21 = tail call ptr @new_ipv4(i32 noundef %17)
  store volatile ptr %21, ptr %13, align 8
  %.0..0..0..0.11 = load volatile ptr, ptr %13, align 8
  %22 = tail call zeroext i1 @fill_dummy_ip4(i32 noundef %17, ptr noundef %.0..0..0..0.11)
  call void @llvm.lifetime.start.p0(i64 8, ptr nonnull %14)
  %23 = tail call ptr @new_ipv4(i32 noundef %20)
  store volatile ptr %23, ptr %14, align 8
  %.0..0..0..0.8 = load volatile ptr, ptr %14, align 8
  %24 = tail call zeroext i1 @fill_dummy_ip4(i32 noundef %20, ptr noundef %.0..0..0..0.8)
  %25 = tail call ptr @wmem_epan_scope()
  %26 = tail call noalias dereferenceable_or_null(24) ptr @wmem_alloc(ptr noundef %25, i64 noundef 24) #14
  %.0..0..0..0.12 = load volatile ptr, ptr %13, align 8
  %27 = getelementptr inbounds nuw i8, ptr %.0..0..0..0.12, i64 277
  %28 = tail call i64 @strlen(ptr noundef nonnull dereferenceable(1) %27) #13
  %29 = trunc i64 %28 to i32
  %30 = getelementptr inbounds nuw i8, ptr %26, i64 4
  store i32 %29, ptr %30, align 4
  %31 = tail call ptr @wmem_file_scope()
  %.0..0..0..0.13 = load volatile ptr, ptr %13, align 8
  %32 = getelementptr inbounds nuw i8, ptr %.0..0..0..0.13, i64 277
  %33 = tail call noalias ptr @wmem_strdup(ptr noundef %31, ptr noundef nonnull %32)
  %34 = getelementptr inbounds nuw i8, ptr %26, i64 8
  store ptr %33, ptr %34, align 8
  store i32 7, ptr %26, align 8
  %35 = tail call ptr @wmem_epan_scope()
  %36 = tail call noalias dereferenceable_or_null(24) ptr @wmem_alloc(ptr noundef %35, i64 noundef 24) #14
  %.0..0..0..0.9 = load volatile ptr, ptr %14, align 8
  %37 = getelementptr inbounds nuw i8, ptr %.0..0..0..0.9, i64 277
  %38 = tail call i64 @strlen(ptr noundef nonnull dereferenceable(1) %37) #13
  %39 = trunc i64 %38 to i32
  %40 = getelementptr inbounds nuw i8, ptr %36, i64 4
  store i32 %39, ptr %40, align 4
  %41 = tail call ptr @wmem_file_scope()
  %.0..0..0..0.10 = load volatile ptr, ptr %14, align 8
  %42 = getelementptr inbounds nuw i8, ptr %.0..0..0..0.10, i64 277
  %43 = tail call noalias ptr @wmem_strdup(ptr noundef %41, ptr noundef nonnull %42)
  %44 = getelementptr inbounds nuw i8, ptr %36, i64 8
  store ptr %43, ptr %44, align 8
  store i32 7, ptr %36, align 8
  %45 = tail call ptr @add_conversation_table_data_with_conv_id(ptr noundef %0, ptr noundef %1, ptr noundef %2, i32 noundef %3, i32 noundef %4, i32 noundef %5, i32 noundef %6, i32 noundef %7, ptr noundef %8, ptr noundef %9, ptr noundef %10, i32 noundef %11)
  %brmerge = select i1 %22, i1 true, i1 %24
  br i1 %brmerge, label %46, label %49

46:                                               ; preds = %12
  %.mux45 = select i1 %22, ptr %26, ptr %1
  %47 = select i1 %24, ptr %36, ptr %2
  %48 = tail call ptr @add_conversation_table_data_with_conv_id(ptr noundef %0, ptr noundef %.mux45, ptr noundef %47, i32 noundef %3, i32 noundef %4, i32 noundef -1, i32 noundef %6, i32 noundef %7, ptr noundef %8, ptr noundef %9, ptr noundef %10, i32 noundef %11)
  br label %49

49:                                               ; preds = %12, %46
  call void @llvm.lifetime.end.p0(i64 8, ptr nonnull %14)
  call void @llvm.lifetime.end.p0(i64 8, ptr nonnull %13)
  ret void
}